TN:build_tests_matrix_test
SF:/usr/local/include/c++/11.2.0/ext/new_allocator.h
FN:79,_ZN9__gnu_cxx13new_allocatorIcEC2Ev
FNDA:0,_ZN9__gnu_cxx13new_allocatorIcEC2Ev
FN:82,_ZN9__gnu_cxx13new_allocatorIcEC2ERKS1_
FNDA:0,_ZN9__gnu_cxx13new_allocatorIcEC2ERKS1_
FN:89,_ZN9__gnu_cxx13new_allocatorIcED2Ev
FNDA:0,_ZN9__gnu_cxx13new_allocatorIcED2Ev
DA:79,0
DA:82,0
DA:89,0
end_of_record
SF:/usr/local/include/c++/11.2.0/iostream
end_of_record
SF:/usr/local/include/c++/11.2.0/bits/basic_string.h
FN:251,_ZNSt7__cxx1112basic_stringIcSt11char_traitsIcESaIcEE16_M_construct_auxIPcEEvT_S7_St12__false_type
FNDA:0,_ZNSt7__cxx1112basic_stringIcSt11char_traitsIcESaIcEE16_M_construct_auxIPcEEvT_S7_St12__false_type
FN:271,_ZNSt7__cxx1112basic_stringIcSt11char_traitsIcESaIcEE12_M_constructIPcEEvT_S7_
FNDA:0,_ZNSt7__cxx1112basic_stringIcSt11char_traitsIcESaIcEE12_M_constructIPcEEvT_S7_
DA:251,0
DA:255,0
DA:256,0
DA:271,0
DA:274,0
DA:275,0
end_of_record
SF:/Hw/tests/main_test.cpp
FN:8,_ZN35MATRIX_create_matrix_from_file_TestC2Ev
FNDA:3,_ZN35MATRIX_create_matrix_from_file_TestC2Ev
FN:8,_ZN35MATRIX_create_matrix_from_file_Test8TestBodyEv
FNDA:3,_ZN35MATRIX_create_matrix_from_file_Test8TestBodyEv
FN:8,_ZN35MATRIX_create_matrix_from_file_TestD2Ev
FNDA:3,_ZN35MATRIX_create_matrix_from_file_TestD2Ev
FN:8,_ZN35MATRIX_create_matrix_from_file_TestD0Ev
FNDA:3,_ZN35MATRIX_create_matrix_from_file_TestD0Ev
FN:12,_ZN25MATRIX_create_matrix_TestC2Ev
FNDA:3,_ZN25MATRIX_create_matrix_TestC2Ev
FN:12,_ZN25MATRIX_create_matrix_Test8TestBodyEv
FNDA:3,_ZN25MATRIX_create_matrix_Test8TestBodyEv
FN:12,_ZN25MATRIX_create_matrix_TestD2Ev
FNDA:3,_ZN25MATRIX_create_matrix_TestD2Ev
FN:12,_ZN25MATRIX_create_matrix_TestD0Ev
FNDA:3,_ZN25MATRIX_create_matrix_TestD0Ev
FN:16,_ZN23MATRIX_free_matrix_TestC2Ev
FNDA:3,_ZN23MATRIX_free_matrix_TestC2Ev
FN:16,_ZN23MATRIX_free_matrix_TestD0Ev
FNDA:3,_ZN23MATRIX_free_matrix_TestD0Ev
FN:16,_ZN23MATRIX_free_matrix_TestD2Ev
FNDA:3,_ZN23MATRIX_free_matrix_TestD2Ev
FN:16,_ZN23MATRIX_free_matrix_Test8TestBodyEv
FNDA:3,_ZN23MATRIX_free_matrix_Test8TestBodyEv
FN:20,_ZN30MATRIX_calculate_sum_cols_TestD0Ev
FNDA:3,_ZN30MATRIX_calculate_sum_cols_TestD0Ev
FN:20,_ZN30MATRIX_calculate_sum_cols_TestD2Ev
FNDA:3,_ZN30MATRIX_calculate_sum_cols_TestD2Ev
FN:20,_ZN30MATRIX_calculate_sum_cols_TestC2Ev
FNDA:3,_ZN30MATRIX_calculate_sum_cols_TestC2Ev
FN:20,_ZN30MATRIX_calculate_sum_cols_Test8TestBodyEv
FNDA:3,_ZN30MATRIX_calculate_sum_cols_Test8TestBodyEv
FN:24,_ZN24MATRIX_print_result_TestC2Ev
FNDA:3,_ZN24MATRIX_print_result_TestC2Ev
FN:24,_ZN24MATRIX_print_result_TestD0Ev
FNDA:3,_ZN24MATRIX_print_result_TestD0Ev
FN:24,_ZN24MATRIX_print_result_TestD2Ev
FNDA:3,_ZN24MATRIX_print_result_TestD2Ev
FN:24,_ZN24MATRIX_print_result_Test8TestBodyEv
FNDA:3,_ZN24MATRIX_print_result_Test8TestBodyEv
FN:28,_ZN34BUSINESS_LOGIC_business_logic_TestD2Ev
FNDA:3,_ZN34BUSINESS_LOGIC_business_logic_TestD2Ev
FN:28,_ZN34BUSINESS_LOGIC_business_logic_Test8TestBodyEv
FNDA:3,_ZN34BUSINESS_LOGIC_business_logic_Test8TestBodyEv
FN:28,_ZN34BUSINESS_LOGIC_business_logic_TestD0Ev
FNDA:3,_ZN34BUSINESS_LOGIC_business_logic_TestD0Ev
FN:28,_ZN34BUSINESS_LOGIC_business_logic_TestC2Ev
FNDA:3,_ZN34BUSINESS_LOGIC_business_logic_TestC2Ev
FN:32,_ZN14MAIN_main_Test8TestBodyEv
FNDA:3,_ZN14MAIN_main_Test8TestBodyEv
FN:32,_ZN14MAIN_main_TestD2Ev
FNDA:3,_ZN14MAIN_main_TestD2Ev
FN:32,_ZN14MAIN_main_TestD0Ev
FNDA:3,_ZN14MAIN_main_TestD0Ev
FN:32,_ZN14MAIN_main_TestC2Ev
FNDA:3,_ZN14MAIN_main_TestC2Ev
FN:36,main
FNDA:3,main
DA:8,3
DA:8,3
DA:8,3
DA:8,3
DA:10,3
DA:12,3
DA:12,3
DA:12,3
DA:12,3
DA:14,3
DA:16,3
DA:16,3
DA:16,3
DA:16,3
DA:18,3
DA:20,3
DA:20,3
DA:20,3
DA:20,3
DA:22,3
DA:24,3
DA:24,3
DA:24,3
DA:24,3
DA:26,3
DA:28,3
DA:28,3
DA:28,3
DA:28,3
DA:30,3
DA:32,3
DA:32,3
DA:32,3
DA:32,3
DA:34,3
DA:36,3
DA:37,3
DA:38,3
end_of_record
SF:/usr/local/include/c++/11.2.0/bits/move.h
FN:104,_ZSt4moveIRSaIcEEONSt16remove_referenceIT_E4typeEOS3_
FNDA:0,_ZSt4moveIRSaIcEEONSt16remove_referenceIT_E4typeEOS3_
DA:104,0
DA:105,0
end_of_record
SF:/usr/local/include/c++/11.2.0/bits/stl_iterator_base_types.h
FN:238,_ZSt19__iterator_categoryIPcENSt15iterator_traitsIT_E17iterator_categoryERKS2_
FNDA:0,_ZSt19__iterator_categoryIPcENSt15iterator_traitsIT_E17iterator_categoryERKS2_
FN:238,_ZSt19__iterator_categoryIPKcENSt15iterator_traitsIT_E17iterator_categoryERKS3_
FNDA:0,_ZSt19__iterator_categoryIPKcENSt15iterator_traitsIT_E17iterator_categoryERKS3_
DA:238,0
DA:239,0
DA:238,0
DA:239,0
end_of_record
SF:/usr/include/gtest/internal/gtest-port.h
FN:974,_ZN7testing8internal8GTestLog9GetStreamEv
FNDA:0,_ZN7testing8internal8GTestLog9GetStreamEv
DA:974,0
end_of_record
SF:/usr/local/include/c++/11.2.0/bits/stl_iterator_base_funcs.h
FN:98,_ZSt10__distanceIPcENSt15iterator_traitsIT_E15difference_typeES2_S2_St26random_access_iterator_tag
FNDA:0,_ZSt10__distanceIPcENSt15iterator_traitsIT_E15difference_typeES2_S2_St26random_access_iterator_tag
FN:98,_ZSt10__distanceIPKcENSt15iterator_traitsIT_E15difference_typeES3_S3_St26random_access_iterator_tag
FNDA:0,_ZSt10__distanceIPKcENSt15iterator_traitsIT_E15difference_typeES3_S3_St26random_access_iterator_tag
FN:138,_ZSt8distanceIPcENSt15iterator_traitsIT_E15difference_typeES2_S2_
FNDA:0,_ZSt8distanceIPcENSt15iterator_traitsIT_E15difference_typeES2_S2_
FN:138,_ZSt8distanceIPKcENSt15iterator_traitsIT_E15difference_typeES3_S3_
FNDA:0,_ZSt8distanceIPKcENSt15iterator_traitsIT_E15difference_typeES3_S3_
DA:98,0
DA:104,0
DA:98,0
DA:104,0
DA:138,0
DA:141,0
DA:142,0
DA:138,0
DA:141,0
DA:142,0
end_of_record
SF:/usr/include/gtest/internal/gtest-internal.h
FN:454,_ZN7testing8internal15TestFactoryBaseD0Ev
FNDA:0,_ZN7testing8internal15TestFactoryBaseD0Ev
FN:454,_ZN7testing8internal15TestFactoryBaseD2Ev
FNDA:21,_ZN7testing8internal15TestFactoryBaseD2Ev
FN:461,_ZN7testing8internal15TestFactoryBaseC2Ev
FNDA:21,_ZN7testing8internal15TestFactoryBaseC2Ev
FN:472,_ZN7testing8internal15TestFactoryImplI35MATRIX_create_matrix_from_file_TestE10CreateTestEv
FNDA:3,_ZN7testing8internal15TestFactoryImplI35MATRIX_create_matrix_from_file_TestE10CreateTestEv
FN:472,_ZN7testing8internal15TestFactoryImplI25MATRIX_create_matrix_TestE10CreateTestEv
FNDA:3,_ZN7testing8internal15TestFactoryImplI25MATRIX_create_matrix_TestE10CreateTestEv
FN:472,_ZN7testing8internal15TestFactoryImplI23MATRIX_free_matrix_TestE10CreateTestEv
FNDA:3,_ZN7testing8internal15TestFactoryImplI23MATRIX_free_matrix_TestE10CreateTestEv
FN:472,_ZN7testing8internal15TestFactoryImplI30MATRIX_calculate_sum_cols_TestE10CreateTestEv
FNDA:3,_ZN7testing8internal15TestFactoryImplI30MATRIX_calculate_sum_cols_TestE10CreateTestEv
FN:472,_ZN7testing8internal15TestFactoryImplI24MATRIX_print_result_TestE10CreateTestEv
FNDA:3,_ZN7testing8internal15TestFactoryImplI24MATRIX_print_result_TestE10CreateTestEv
FN:472,_ZN7testing8internal15TestFactoryImplI34BUSINESS_LOGIC_business_logic_TestE10CreateTestEv
FNDA:3,_ZN7testing8internal15TestFactoryImplI34BUSINESS_LOGIC_business_logic_TestE10CreateTestEv
FN:472,_ZN7testing8internal15TestFactoryImplI14MAIN_main_TestE10CreateTestEv
FNDA:3,_ZN7testing8internal15TestFactoryImplI14MAIN_main_TestE10CreateTestEv
FN:493,_ZN7testing8internal12CodeLocationC2ERKNSt7__cxx1112basic_stringIcSt11char_traitsIcESaIcEEEi
FNDA:21,_ZN7testing8internal12CodeLocationC2ERKNSt7__cxx1112basic_stringIcSt11char_traitsIcESaIcEEEi
FN:506,_ZN7testing8internal19GetNotDefaultOrNullEPFvvES2_
FNDA:84,_ZN7testing8internal19GetNotDefaultOrNullEPFvvES2_
FN:521,_ZN7testing8internal16SuiteApiResolverINS_4TestEE19GetSetUpCaseOrSuiteEPKci
FNDA:21,_ZN7testing8internal16SuiteApiResolverINS_4TestEE19GetSetUpCaseOrSuiteEPKci
FN:542,_ZN7testing8internal16SuiteApiResolverINS_4TestEE22GetTearDownCaseOrSuiteEPKci
FNDA:21,_ZN7testing8internal16SuiteApiResolverINS_4TestEE22GetTearDownCaseOrSuiteEPKci
DA:454,0
DA:454,21
DA:461,21
DA:472,3
DA:472,3
DA:472,3
DA:472,3
DA:472,3
DA:472,3
DA:472,3
DA:493,21
DA:494,21
DA:506,84
DA:508,84
DA:521,21
DA:525,21
DA:527,21
DA:529,21
DA:532,0
DA:534,21
DA:542,21
DA:546,21
DA:548,21
DA:550,21
DA:553,0
DA:555,21
end_of_record
SF:/usr/local/include/c++/11.2.0/bits/alloc_traits.h
FN:558,_ZNSt16allocator_traitsISaIcEE37select_on_container_copy_constructionERKS0_
FNDA:0,_ZNSt16allocator_traitsISaIcEE37select_on_container_copy_constructionERKS0_
DA:558,0
DA:559,0
end_of_record
SF:/usr/local/include/c++/11.2.0/ext/type_traits.h
FN:152,_ZN9__gnu_cxx17__is_null_pointerIcEEbPT_
FNDA:0,_ZN9__gnu_cxx17__is_null_pointerIcEEbPT_
FN:152,_ZN9__gnu_cxx17__is_null_pointerIKcEEbPT_
FNDA:0,_ZN9__gnu_cxx17__is_null_pointerIKcEEbPT_
DA:152,0
DA:153,0
DA:152,0
DA:153,0
end_of_record
SF:/usr/local/include/c++/11.2.0/ext/alloc_traits.h
FN:97,_ZN9__gnu_cxx14__alloc_traitsISaIcEcE17_S_select_on_copyERKS1_
FNDA:0,_ZN9__gnu_cxx14__alloc_traitsISaIcEcE17_S_select_on_copyERKS1_
DA:97,0
DA:98,0
end_of_record
SF:/usr/local/include/c++/11.2.0/bits/basic_string.tcc
FN:206,_ZNSt7__cxx1112basic_stringIcSt11char_traitsIcESaIcEE12_M_constructIPcEEvT_S7_St20forward_iterator_tag
FNDA:0,_ZNSt7__cxx1112basic_stringIcSt11char_traitsIcESaIcEE12_M_constructIPcEEvT_S7_St20forward_iterator_tag
FN:206,_ZNSt7__cxx1112basic_stringIcSt11char_traitsIcESaIcEE12_M_constructIPKcEEvT_S8_St20forward_iterator_tag
FNDA:0,_ZNSt7__cxx1112basic_stringIcSt11char_traitsIcESaIcEE12_M_constructIPKcEEvT_S8_St20forward_iterator_tag
DA:206,0
DA:211,0
DA:212,0
DA:215,0
DA:217,0
DA:219,0
DA:220,0
DA:225,0
DA:226,0
DA:228,0
DA:229,0
DA:232,0
DA:233,0
DA:206,0
DA:211,0
DA:212,0
DA:215,0
DA:217,0
DA:219,0
DA:220,0
DA:225,0
DA:226,0
DA:228,0
DA:229,0
DA:232,0
DA:233,0
end_of_record
SF:/usr/local/include/c++/11.2.0/bits/char_traits.h
FN:365,_ZNSt11char_traitsIcE6lengthEPKc
FNDA:0,_ZNSt11char_traitsIcE6lengthEPKc
DA:365,0
DA:371,0
end_of_record
SF:/usr/include/gtest/gtest.h
FN:427,_ZN7testing4Test14SetUpTestSuiteEv
FNDA:0,_ZN7testing4Test14SetUpTestSuiteEv
FN:435,_ZN7testing4Test17TearDownTestSuiteEv
FNDA:0,_ZN7testing4Test17TearDownTestSuiteEv
FN:440,_ZN7testing4Test16TearDownTestCaseEv
FNDA:0,_ZN7testing4Test16TearDownTestCaseEv
FN:441,_ZN7testing4Test13SetUpTestCaseEv
FNDA:0,_ZN7testing4Test13SetUpTestCaseEv
FN:522,_ZN7testing4Test5SetupEv
FNDA:0,_ZN7testing4Test5SetupEv
FN:2485,_Z13RUN_ALL_TESTSv
FNDA:3,_Z13RUN_ALL_TESTSv
DA:427,0
DA:435,0
DA:440,0
DA:441,0
DA:522,0
DA:2485,3
DA:2486,3
end_of_record
